ccopy_reg
_reconstructor
p0
(csklearn.linear_model.base
LinearRegression
p1
c__builtin__
object
p2
Ntp3
Rp4
(dp5
S'normalize'
p6
I00
sS'n_jobs'
p7
I1
sS'rank_'
p8
I4
sS'fit_intercept'
p9
I01
sS'_residues'
p10
cnumpy.core.multiarray
scalar
p11
(cnumpy
dtype
p12
(S'f8'
p13
I0
I1
tp14
Rp15
(I3
S'<'
p16
NNNI-1
I-1
I0
tp17
bS'\xdb\xf2\x9e\xed\xff\xef\xdc@'
p18
tp19
Rp20
sS'coef_'
p21
cnumpy.core.multiarray
_reconstruct
p22
(cnumpy
ndarray
p23
(I0
tp24
S'b'
p25
tp26
Rp27
(I1
(I4
tp28
g15
I00
S'\xe8\xd8X\xa9\x0c:&?\x90\xaf\x8e6XWD\xbf\xef9\nh\r\xaa)?\xe0\xb6S\xc7\xa0\xcf\xef?'
p29
tp30
bsS'copy_X'
p31
I01
sS'intercept_'
p32
g11
(g15
S'\x00/<\x84\xb2\xd0\xac?'
p33
tp34
Rp35
sS'singular_'
p36
g22
(g23
(I0
tp37
g25
tp38
Rp39
(I1
(I4
tp40
g15
I00
S'\xd2\xf3\xe6qN\xac\xd1@\xf1KvA[\xf1\xb5@b\\4\xe3\x00\x9et@6\x1e\x17\xfa\x93l0@'
p41
tp42
bsb.