ccopy_reg
_reconstructor
p0
(csklearn.linear_model.base
LinearRegression
p1
c__builtin__
object
p2
Ntp3
Rp4
(dp5
S'normalize'
p6
I00
sS'n_jobs'
p7
I1
sS'rank_'
p8
I3
sS'fit_intercept'
p9
I01
sS'_residues'
p10
cnumpy.core.multiarray
scalar
p11
(cnumpy
dtype
p12
(S'f8'
p13
I0
I1
tp14
Rp15
(I3
S'<'
p16
NNNI-1
I-1
I0
tp17
bS'7\xcf\x1a\x93\xa62\xdd@'
p18
tp19
Rp20
sS'coef_'
p21
cnumpy.core.multiarray
_reconstruct
p22
(cnumpy
ndarray
p23
(I0
tp24
S'b'
p25
tp26
Rp27
(I1
(I3
tp28
g15
I00
S'\xae\xf3\xa5T\xa6=j?x$\x0fnq%\x85\xbf\x82\x95\x01\xaae\\-?'
p29
tp30
bsS'copy_X'
p31
I01
sS'intercept_'
p32
g11
(g15
S'\xbd@\xe3\x0f\x08\x82\x11@'
p33
tp34
Rp35
sS'singular_'
p36
g22
(g23
(I0
tp37
g25
tp38
Rp39
(I1
(I3
tp40
g15
I00
S'4\x9f\xe3qN\xac\xd1@\xc9\xd6\xb3_Z\xf1\xb5@1\xeeX\xdf\xba\x9dt@'
p41
tp42
bsb.